target datalayout = "e-m:e-p270:32:32-p271:32:32-p272:64:64-i64:64-i128:128-f80:128-n8:16:32:64-S128"
target triple = "x86_64-pc-linux-gnu"

%struct.FBufferStruct = type { i32, i64, i64, i64, ptr, i64 }

; Function Attrs: nounwind sspstrong uwtable
define internal void @fbuffer_clear(ptr noundef %0) #0 {
  %2 = alloca ptr, align 8
  store ptr %0, ptr %2, align 8, !tbaa !57
  %3 = load ptr, ptr %2, align 8, !tbaa !57
  %4 = getelementptr inbounds nuw %struct.FBufferStruct, ptr %3, i32 0, i32 2
  store i64 0, ptr %4, align 8, !tbaa !65
  ret void
}

; Function Attrs: nounwind sspstrong uwtable
define internal void @fbuffer_flush(ptr noundef %0) #0 {
  %2 = alloca ptr, align 8
  store ptr %0, ptr %2, align 8, !tbaa !57
  %3 = load ptr, ptr %2, align 8, !tbaa !57
  %4 = getelementptr inbounds nuw %struct.FBufferStruct, ptr %3, i32 0, i32 5
  %5 = load i64, ptr %4, align 8, !tbaa !34
  br i1 false, label %6, label %11

6:                                                ; preds = %1
  %7 = load ptr, ptr %2, align 8, !tbaa !57
  %8 = getelementptr inbounds nuw %struct.FBufferStruct, ptr %7, i32 0, i32 2
  %9 = load i64, ptr %8, align 8, !tbaa !65
  %10 = call i1 @llvm.is.constant.i64(i64 %9)
  br label %11

11:                                               ; preds = %6, %1
  %12 = phi i1 [ false, %1 ], [ %10, %6 ]
  %13 = select i1 %12, ptr @rb_utf8_str_new_static, ptr @rb_utf8_str_new
  %14 = load ptr, ptr %2, align 8, !tbaa !57
  %15 = getelementptr inbounds nuw %struct.FBufferStruct, ptr %14, i32 0, i32 4
  %16 = load ptr, ptr %15, align 8, !tbaa !63
  %17 = load ptr, ptr %2, align 8, !tbaa !57
  %18 = getelementptr inbounds nuw %struct.FBufferStruct, ptr %17, i32 0, i32 2
  %19 = load i64, ptr %18, align 8, !tbaa !65
  %20 = call i64 %13(ptr noundef %16, i64 noundef %19)
  %21 = call i64 @rb_io_write(i64 noundef %5, i64 noundef %20)
  %22 = load ptr, ptr %2, align 8, !tbaa !57
  call void @fbuffer_clear(ptr noundef %22)
  ret void
}