; Function Attrs: nounwind sspstrong uwtable
define internal fastcc void @fbuffer_flush(ptr noundef captures(none) %0) unnamed_addr #0 {
  %2 = getelementptr inbounds nuw i8, ptr %0, i64 40
  %3 = load i64, ptr %2, align 8, !tbaa !41
  %4 = getelementptr inbounds nuw i8, ptr %0, i64 32
  %5 = load ptr, ptr %4, align 8, !tbaa !46
  %6 = getelementptr inbounds nuw i8, ptr %0, i64 16
  %7 = load i64, ptr %6, align 8, !tbaa !56
  %8 = tail call i64 @rb_utf8_str_new(ptr noundef %5, i64 noundef %7) #22
  %9 = tail call i64 @rb_io_write(i64 noundef %3, i64 noundef %8) #22
  store i64 0, ptr %6, align 8, !tbaa !56
  ret void
}